; Function Attrs: nofree norecurse nosync nounwind memory(argmem: readwrite) uwtable
define internal void @SDL_Convert21To71(ptr noundef writeonly captures(none) %0, ptr noundef readonly captures(none) %1, i32 noundef %2) #5 {
  %.not21 = icmp eq i32 %2, 0
  br i1 %.not21, label %._crit_edge, label %.lr.ph.preheader

.lr.ph.preheader:                                 ; preds = %3
  %4 = add nsw i32 %2, -1
  %5 = shl nsw i32 %4, 3
  %6 = sext i32 %5 to i64
  %7 = getelementptr inbounds float, ptr %0, i64 %6
  %8 = mul nsw i32 %4, 3
  %9 = sext i32 %8 to i64
  %10 = getelementptr inbounds float, ptr %1, i64 %9
  br label %.lr.ph

.lr.ph:                                           ; preds = %.lr.ph.preheader, %.lr.ph
  %.024 = phi i32 [ %20, %.lr.ph ], [ %2, %.lr.ph.preheader ]
  %.01923 = phi ptr [ %22, %.lr.ph ], [ %7, %.lr.ph.preheader ]
  %.02022 = phi ptr [ %21, %.lr.ph ], [ %10, %.lr.ph.preheader ]
  %11 = getelementptr inbounds nuw i8, ptr %.01923, i64 16
  %12 = getelementptr inbounds nuw i8, ptr %.02022, i64 8
  tail call void @llvm.memset.p0.i64(ptr noundef nonnull align 4 dereferenceable(16) %11, i8 0, i64 16, i1 false)
  %13 = load float, ptr %12, align 4
  %14 = getelementptr inbounds nuw i8, ptr %.01923, i64 12
  store float %13, ptr %14, align 4
  %15 = getelementptr inbounds nuw i8, ptr %.01923, i64 8
  store float 0.000000e+00, ptr %15, align 4
  %16 = getelementptr inbounds nuw i8, ptr %.02022, i64 4
  %17 = load float, ptr %16, align 4
  %18 = getelementptr inbounds nuw i8, ptr %.01923, i64 4
  store float %17, ptr %18, align 4
  %19 = load float, ptr %.02022, align 4
  store float %19, ptr %.01923, align 4
  %20 = add nsw i32 %.024, -1
  %21 = getelementptr inbounds i8, ptr %.02022, i64 -12
  %22 = getelementptr inbounds i8, ptr %.01923, i64 -32
  %.not = icmp eq i32 %20, 0
  br i1 %.not, label %._crit_edge, label %.lr.ph, !llvm.loop !70

._crit_edge:                                      ; preds = %.lr.ph, %3
  ret void
}